; Function Attrs: mustprogress uwtable
define noundef nonnull align 8 dereferenceable(8) ptr @_ZN5follylsERSoRKNS_9TimePointE(ptr noundef nonnull returned align 8 dereferenceable(8) %0, ptr noundef nonnull readonly align 8 captures(none) dereferenceable(28) %1) local_unnamed_addr #0 {
  %3 = tail call noundef nonnull align 8 dereferenceable(8) ptr @_ZSt16__ostream_insertIcSt11char_traitsIcEERSt13basic_ostreamIT_T0_ES6_PKS3_l(ptr noundef nonnull align 8 dereferenceable(8) %0, ptr noundef nonnull @.str.27, i64 noundef 10)
  %.sroa.0.0.copyload.i = load i64, ptr %1, align 8, !tbaa !7
  %4 = tail call noundef nonnull align 8 dereferenceable(8) ptr @_ZNSo9_M_insertIlEERSoT_(ptr noundef nonnull align 8 dereferenceable(8) %0, i64 noundef %.sroa.0.0.copyload.i)
  %5 = tail call noundef nonnull align 8 dereferenceable(8) ptr @_ZSt16__ostream_insertIcSt11char_traitsIcEERSt13basic_ostreamIT_T0_ES6_PKS3_l(ptr noundef nonnull align 8 dereferenceable(8) %4, ptr noundef nonnull @.str.28, i64 noundef 2)
  %.sroa.0.0.copyload.i6 = load i64, ptr %1, align 8, !tbaa !7
  %6 = tail call noundef nonnull align 8 dereferenceable(8) ptr @_ZNSo9_M_insertIlEERSoT_(ptr noundef nonnull align 8 dereferenceable(8) %4, i64 noundef %.sroa.0.0.copyload.i6)
  %7 = tail call noundef nonnull align 8 dereferenceable(8) ptr @_ZSt16__ostream_insertIcSt11char_traitsIcEERSt13basic_ostreamIT_T0_ES6_PKS3_l(ptr noundef nonnull align 8 dereferenceable(8) %6, ptr noundef nonnull @.str.28, i64 noundef 2)
  %8 = getelementptr inbounds nuw i8, ptr %1, i64 16
  %.sroa.0.0.copyload.i8 = load i64, ptr %8, align 8, !tbaa !7
  %9 = tail call noundef nonnull align 8 dereferenceable(8) ptr @_ZNSo9_M_insertIlEERSoT_(ptr noundef nonnull align 8 dereferenceable(8) %6, i64 noundef %.sroa.0.0.copyload.i8)
  %10 = tail call noundef nonnull align 8 dereferenceable(8) ptr @_ZSt16__ostream_insertIcSt11char_traitsIcEERSt13basic_ostreamIT_T0_ES6_PKS3_l(ptr noundef nonnull align 8 dereferenceable(8) %9, ptr noundef nonnull @.str.29, i64 noundef 1)
  ret ptr %0
}